target datalayout = "e-m:e-p270:32:32-p271:32:32-p272:64:64-i64:64-i128:128-f80:128-n8:16:32:64-S128"
target triple = "x86_64-pc-linux-gnu"

%"class.llvm::itanium_demangle::NodeArray" = type { ptr, i64 }
%"struct.(anonymous namespace)::FoldingSetNodeIDBuilder" = type { ptr }
%"class.llvm::itanium_demangle::Node.base" = type <{ ptr, i8, i16 }>
%"struct.(anonymous namespace)::ProfileNode" = type { ptr }
%"class.llvm::itanium_demangle::Node" = type <{ ptr, i8, i16, [5 x i8] }>
%"struct.(anonymous namespace)::ProfileSpecificNode.83" = type { ptr }
%"class.llvm::itanium_demangle::CallExpr" = type { %"class.llvm::itanium_demangle::Node.base", ptr, %"class.llvm::itanium_demangle::NodeArray" }

; Function Attrs: mustprogress nounwind uwtable
define linkonce_odr hidden noundef ptr @_ZNK4llvm16itanium_demangle9NodeArray3endEv(ptr noundef nonnull align 8 dereferenceable(16) %0) #0 comdat align 2 {
  %2 = alloca ptr, align 8
  store ptr %0, ptr %2, align 8
  %3 = load ptr, ptr %2, align 8
  %4 = getelementptr inbounds nuw %"class.llvm::itanium_demangle::NodeArray", ptr %3, i32 0, i32 0
  %5 = load ptr, ptr %4, align 8
  %6 = getelementptr inbounds nuw %"class.llvm::itanium_demangle::NodeArray", ptr %3, i32 0, i32 1
  %7 = load i64, ptr %6, align 8
  %8 = getelementptr inbounds ptr, ptr %5, i64 %7
  ret ptr %8
}

; Function Attrs: mustprogress nounwind uwtable
define linkonce_odr hidden noundef ptr @_ZNK4llvm16itanium_demangle9NodeArray5beginEv(ptr noundef nonnull align 8 dereferenceable(16) %0) #0 comdat align 2 {
  %2 = alloca ptr, align 8
  store ptr %0, ptr %2, align 8
  %3 = load ptr, ptr %2, align 8
  %4 = getelementptr inbounds nuw %"class.llvm::itanium_demangle::NodeArray", ptr %3, i32 0, i32 0
  %5 = load ptr, ptr %4, align 8
  ret ptr %5
}

; Function Attrs: mustprogress nounwind uwtable
define linkonce_odr hidden void @_ZN4llvm16FoldingSetNodeID10AddIntegerEm(ptr noundef nonnull align 8 dereferenceable(144) %0, i64 noundef %1) #0 comdat align 2 {
  %3 = alloca ptr, align 8
  %4 = alloca i64, align 8
  store ptr %0, ptr %3, align 8
  store i64 %1, ptr %4, align 8
  %5 = load ptr, ptr %3, align 8
  %6 = load i64, ptr %4, align 8
  call void @_ZN4llvm16FoldingSetNodeID10AddIntegerEy(ptr noundef nonnull align 8 dereferenceable(144) %5, i64 noundef %6)
  ret void
}

; Function Attrs: mustprogress nounwind uwtable
define linkonce_odr hidden noundef i64 @_ZNK4llvm16itanium_demangle9NodeArray4sizeEv(ptr noundef nonnull align 8 dereferenceable(16) %0) #0 comdat align 2 {
  %2 = alloca ptr, align 8
  store ptr %0, ptr %2, align 8
  %3 = load ptr, ptr %2, align 8
  %4 = getelementptr inbounds nuw %"class.llvm::itanium_demangle::NodeArray", ptr %3, i32 0, i32 1
  %5 = load i64, ptr %4, align 8
  ret i64 %5
}

; Function Attrs: mustprogress nounwind uwtable
define linkonce_odr hidden void @_ZN4llvm16FoldingSetNodeID10AddPointerEPKv(ptr noundef nonnull align 8 dereferenceable(144) %0, ptr noundef %1) #0 comdat align 2 {
  %3 = alloca ptr, align 8
  %4 = alloca ptr, align 8
  store ptr %0, ptr %3, align 8
  store ptr %1, ptr %4, align 8
  %5 = load ptr, ptr %3, align 8
  %6 = load ptr, ptr %4, align 8
  %7 = ptrtoint ptr %6 to i64
  call void @_ZN4llvm16FoldingSetNodeID10AddIntegerEm(ptr noundef nonnull align 8 dereferenceable(144) %5, i64 noundef %7)
  ret void
}

; Function Attrs: mustprogress nounwind uwtable
define internal void @_ZN12_GLOBAL__N_123FoldingSetNodeIDBuilderclIN4llvm16itanium_demangle4Node4PrecEEENSt9enable_ifIXoosr3stdE13is_integral_vIT_Esr3stdE9is_enum_vIS7_EEvE4typeES7_(ptr noundef nonnull align 8 dereferenceable(8) %0, i32 noundef %1) #0 align 2 {
  %3 = alloca ptr, align 8
  %4 = alloca i32, align 4
  store ptr %0, ptr %3, align 8
  store i32 %1, ptr %4, align 4
  %5 = load ptr, ptr %3, align 8
  %6 = getelementptr inbounds nuw %"struct.(anonymous namespace)::FoldingSetNodeIDBuilder", ptr %5, i32 0, i32 0
  %7 = load ptr, ptr %6, align 8
  %8 = load i32, ptr %4, align 4
  %9 = sext i32 %8 to i64
  call void @_ZN4llvm16FoldingSetNodeID10AddIntegerEy(ptr noundef nonnull align 8 dereferenceable(144) %7, i64 noundef %9)
  ret void
}

; Function Attrs: mustprogress nounwind uwtable
define internal void @_ZN12_GLOBAL__N_123FoldingSetNodeIDBuilderclEN4llvm16itanium_demangle9NodeArrayE(ptr noundef nonnull align 8 dereferenceable(8) %0, ptr %1, i64 %2) #0 align 2 {
  %4 = alloca %"class.llvm::itanium_demangle::NodeArray", align 8
  %5 = alloca ptr, align 8
  %6 = alloca ptr, align 8
  %7 = alloca ptr, align 8
  %8 = alloca ptr, align 8
  %9 = alloca ptr, align 8
  %10 = getelementptr inbounds nuw { ptr, i64 }, ptr %4, i32 0, i32 0
  store ptr %1, ptr %10, align 8
  %11 = getelementptr inbounds nuw { ptr, i64 }, ptr %4, i32 0, i32 1
  store i64 %2, ptr %11, align 8
  store ptr %0, ptr %5, align 8
  %12 = load ptr, ptr %5, align 8
  %13 = getelementptr inbounds nuw %"struct.(anonymous namespace)::FoldingSetNodeIDBuilder", ptr %12, i32 0, i32 0
  %14 = load ptr, ptr %13, align 8
  %15 = call noundef i64 @_ZNK4llvm16itanium_demangle9NodeArray4sizeEv(ptr noundef nonnull align 8 dereferenceable(16) %4)
  call void @_ZN4llvm16FoldingSetNodeID10AddIntegerEm(ptr noundef nonnull align 8 dereferenceable(144) %14, i64 noundef %15)
  store ptr %4, ptr %6, align 8
  %16 = load ptr, ptr %6, align 8
  %17 = call noundef ptr @_ZNK4llvm16itanium_demangle9NodeArray5beginEv(ptr noundef nonnull align 8 dereferenceable(16) %16)
  store ptr %17, ptr %7, align 8
  %18 = load ptr, ptr %6, align 8
  %19 = call noundef ptr @_ZNK4llvm16itanium_demangle9NodeArray3endEv(ptr noundef nonnull align 8 dereferenceable(16) %18)
  store ptr %19, ptr %8, align 8
  br label %20

20:                                               ; preds = %28, %3
  %21 = load ptr, ptr %7, align 8
  %22 = load ptr, ptr %8, align 8
  %23 = icmp ne ptr %21, %22
  br i1 %23, label %24, label %31

24:                                               ; preds = %20
  %25 = load ptr, ptr %7, align 8
  %26 = load ptr, ptr %25, align 8
  store ptr %26, ptr %9, align 8
  %27 = load ptr, ptr %9, align 8
  call void @_ZN12_GLOBAL__N_123FoldingSetNodeIDBuilderclEPKN4llvm16itanium_demangle4NodeE(ptr noundef nonnull align 8 dereferenceable(8) %12, ptr noundef %27)
  br label %28

28:                                               ; preds = %24
  %29 = load ptr, ptr %7, align 8
  %30 = getelementptr inbounds ptr, ptr %29, i32 1
  store ptr %30, ptr %7, align 8
  br label %20

31:                                               ; preds = %20
  ret void
}

; Function Attrs: mustprogress nounwind uwtable
define internal void @_ZN12_GLOBAL__N_123FoldingSetNodeIDBuilderclEPKN4llvm16itanium_demangle4NodeE(ptr noundef nonnull align 8 dereferenceable(8) %0, ptr noundef %1) #0 align 2 {
  %3 = alloca ptr, align 8
  %4 = alloca ptr, align 8
  store ptr %0, ptr %3, align 8
  store ptr %1, ptr %4, align 8
  %5 = load ptr, ptr %3, align 8
  %6 = getelementptr inbounds nuw %"struct.(anonymous namespace)::FoldingSetNodeIDBuilder", ptr %5, i32 0, i32 0
  %7 = load ptr, ptr %6, align 8
  %8 = load ptr, ptr %4, align 8
  call void @_ZN4llvm16FoldingSetNodeID10AddPointerEPKv(ptr noundef nonnull align 8 dereferenceable(144) %7, ptr noundef %8)
  ret void
}

; Function Attrs: mustprogress nounwind uwtable
define internal void @_ZN12_GLOBAL__N_123FoldingSetNodeIDBuilderclIN4llvm16itanium_demangle4Node4KindEEENSt9enable_ifIXoosr3stdE13is_integral_vIT_Esr3stdE9is_enum_vIS7_EEvE4typeES7_(ptr noundef nonnull align 8 dereferenceable(8) %0, i8 noundef zeroext %1) #0 align 2 {
  %3 = alloca ptr, align 8
  %4 = alloca i8, align 1
  store ptr %0, ptr %3, align 8
  store i8 %1, ptr %4, align 1
  %5 = load ptr, ptr %3, align 8
  %6 = getelementptr inbounds nuw %"struct.(anonymous namespace)::FoldingSetNodeIDBuilder", ptr %5, i32 0, i32 0
  %7 = load ptr, ptr %6, align 8
  %8 = load i8, ptr %4, align 1
  %9 = zext i8 %8 to i64
  call void @_ZN4llvm16FoldingSetNodeID10AddIntegerEy(ptr noundef nonnull align 8 dereferenceable(144) %7, i64 noundef %9)
  ret void
}

; Function Attrs: mustprogress nounwind uwtable
define internal void @_ZN12_GLOBAL__N_111profileCtorIJPKN4llvm16itanium_demangle4NodeENS2_9NodeArrayENS3_4PrecEEEEvRNS1_16FoldingSetNodeIDENS3_4KindEDpT_(ptr noundef nonnull align 8 dereferenceable(144) %0, i8 noundef zeroext %1, ptr noundef %2, ptr %3, i64 %4, i32 noundef %5) #0 {
  %7 = alloca %"class.llvm::itanium_demangle::NodeArray", align 8
  %8 = alloca ptr, align 8
  %9 = alloca i8, align 1
  %10 = alloca ptr, align 8
  %11 = alloca i32, align 4
  %12 = alloca %"struct.(anonymous namespace)::FoldingSetNodeIDBuilder", align 8
  %13 = alloca [4 x i32], align 16
  %14 = alloca %"class.llvm::itanium_demangle::NodeArray", align 8
  %15 = getelementptr inbounds nuw { ptr, i64 }, ptr %7, i32 0, i32 0
  store ptr %3, ptr %15, align 8
  %16 = getelementptr inbounds nuw { ptr, i64 }, ptr %7, i32 0, i32 1
  store i64 %4, ptr %16, align 8
  store ptr %0, ptr %8, align 8
  store i8 %1, ptr %9, align 1
  store ptr %2, ptr %10, align 8
  store i32 %5, ptr %11, align 4
  %17 = getelementptr inbounds nuw %"struct.(anonymous namespace)::FoldingSetNodeIDBuilder", ptr %12, i32 0, i32 0
  %18 = load ptr, ptr %8, align 8
  store ptr %18, ptr %17, align 8
  %19 = load i8, ptr %9, align 1
  call void @_ZN12_GLOBAL__N_123FoldingSetNodeIDBuilderclIN4llvm16itanium_demangle4Node4KindEEENSt9enable_ifIXoosr3stdE13is_integral_vIT_Esr3stdE9is_enum_vIS7_EEvE4typeES7_(ptr noundef nonnull align 8 dereferenceable(8) %12, i8 noundef zeroext %19)
  %20 = load ptr, ptr %10, align 8
  call void @_ZN12_GLOBAL__N_123FoldingSetNodeIDBuilderclEPKN4llvm16itanium_demangle4NodeE(ptr noundef nonnull align 8 dereferenceable(8) %12, ptr noundef %20)
  store i32 0, ptr %13, align 4
  %21 = getelementptr inbounds i32, ptr %13, i64 1
  call void @llvm.memcpy.p0.p0.i64(ptr align 8 %14, ptr align 8 %7, i64 16, i1 false)
  %22 = getelementptr inbounds nuw { ptr, i64 }, ptr %14, i32 0, i32 0
  %23 = load ptr, ptr %22, align 8
  %24 = getelementptr inbounds nuw { ptr, i64 }, ptr %14, i32 0, i32 1
  %25 = load i64, ptr %24, align 8
  call void @_ZN12_GLOBAL__N_123FoldingSetNodeIDBuilderclEN4llvm16itanium_demangle9NodeArrayE(ptr noundef nonnull align 8 dereferenceable(8) %12, ptr %23, i64 %25)
  store i32 0, ptr %21, align 4
  %26 = getelementptr inbounds i32, ptr %13, i64 2
  %27 = load i32, ptr %11, align 4
  call void @_ZN12_GLOBAL__N_123FoldingSetNodeIDBuilderclIN4llvm16itanium_demangle4Node4PrecEEENSt9enable_ifIXoosr3stdE13is_integral_vIT_Esr3stdE9is_enum_vIS7_EEvE4typeES7_(ptr noundef nonnull align 8 dereferenceable(8) %12, i32 noundef %27)
  store i32 0, ptr %26, align 4
  %28 = getelementptr inbounds i32, ptr %13, i64 3
  store i32 0, ptr %28, align 4
  ret void
}

; Function Attrs: mustprogress nounwind uwtable
define internal void @_ZN12_GLOBAL__N_119ProfileSpecificNodeIN4llvm16itanium_demangle8CallExprEEclIJPKNS2_4NodeENS2_9NodeArrayENS6_4PrecEEEEvDpT_(ptr noundef nonnull align 8 dereferenceable(8) %0, ptr noundef %1, ptr %2, i64 %3, i32 noundef %4) #0 align 2 {
  %6 = alloca %"class.llvm::itanium_demangle::NodeArray", align 8
  %7 = alloca ptr, align 8
  %8 = alloca ptr, align 8
  %9 = alloca i32, align 4
  %10 = alloca %"class.llvm::itanium_demangle::NodeArray", align 8
  %11 = getelementptr inbounds nuw { ptr, i64 }, ptr %6, i32 0, i32 0
  store ptr %2, ptr %11, align 8
  %12 = getelementptr inbounds nuw { ptr, i64 }, ptr %6, i32 0, i32 1
  store i64 %3, ptr %12, align 8
  store ptr %0, ptr %7, align 8
  store ptr %1, ptr %8, align 8
  store i32 %4, ptr %9, align 4
  %13 = load ptr, ptr %7, align 8
  %14 = getelementptr inbounds nuw %"struct.(anonymous namespace)::ProfileSpecificNode.83", ptr %13, i32 0, i32 0
  %15 = load ptr, ptr %14, align 8
  %16 = load ptr, ptr %8, align 8
  call void @llvm.memcpy.p0.p0.i64(ptr align 8 %10, ptr align 8 %6, i64 16, i1 false)
  %17 = load i32, ptr %9, align 4
  %18 = getelementptr inbounds nuw { ptr, i64 }, ptr %10, i32 0, i32 0
  %19 = load ptr, ptr %18, align 8
  %20 = getelementptr inbounds nuw { ptr, i64 }, ptr %10, i32 0, i32 1
  %21 = load i64, ptr %20, align 8
  call void @_ZN12_GLOBAL__N_111profileCtorIJPKN4llvm16itanium_demangle4NodeENS2_9NodeArrayENS3_4PrecEEEEvRNS1_16FoldingSetNodeIDENS3_4KindEDpT_(ptr noundef nonnull align 8 dereferenceable(144) %15, i8 noundef zeroext 63, ptr noundef %16, ptr %19, i64 %21, i32 noundef %17)
  ret void
}

; Function Attrs: mustprogress nounwind uwtable
define linkonce_odr hidden noundef i32 @_ZNK4llvm16itanium_demangle4Node13getPrecedenceEv(ptr noundef nonnull align 8 dereferenceable(11) %0) #0 comdat align 2 {
  %2 = alloca ptr, align 8
  store ptr %0, ptr %2, align 8
  %3 = load ptr, ptr %2, align 8
  %4 = getelementptr inbounds nuw %"class.llvm::itanium_demangle::Node", ptr %3, i32 0, i32 2
  %5 = load i16, ptr %4, align 1
  %6 = shl i16 %5, 10
  %7 = ashr i16 %6, 10
  %8 = sext i16 %7 to i32
  ret i32 %8
}

; Function Attrs: mustprogress nounwind uwtable
define internal void @_ZNK4llvm16itanium_demangle8CallExpr5matchIN12_GLOBAL__N_119ProfileSpecificNodeIS1_EEEEvT_(ptr noundef nonnull align 8 dereferenceable(40) %0, ptr %1) #0 align 2 {
  %3 = alloca %"struct.(anonymous namespace)::ProfileSpecificNode.83", align 8
  %4 = alloca ptr, align 8
  %5 = alloca %"class.llvm::itanium_demangle::NodeArray", align 8
  %6 = getelementptr inbounds nuw %"struct.(anonymous namespace)::ProfileSpecificNode.83", ptr %3, i32 0, i32 0
  store ptr %1, ptr %6, align 8
  store ptr %0, ptr %4, align 8
  %7 = load ptr, ptr %4, align 8
  %8 = getelementptr inbounds nuw %"class.llvm::itanium_demangle::CallExpr", ptr %7, i32 0, i32 1
  %9 = load ptr, ptr %8, align 8
  %10 = getelementptr inbounds nuw %"class.llvm::itanium_demangle::CallExpr", ptr %7, i32 0, i32 2
  call void @llvm.memcpy.p0.p0.i64(ptr align 8 %5, ptr align 8 %10, i64 16, i1 false)
  %11 = call noundef i32 @_ZNK4llvm16itanium_demangle4Node13getPrecedenceEv(ptr noundef nonnull align 8 dereferenceable(11) %7)
  %12 = getelementptr inbounds nuw { ptr, i64 }, ptr %5, i32 0, i32 0
  %13 = load ptr, ptr %12, align 8
  %14 = getelementptr inbounds nuw { ptr, i64 }, ptr %5, i32 0, i32 1
  %15 = load i64, ptr %14, align 8
  call void @_ZN12_GLOBAL__N_119ProfileSpecificNodeIN4llvm16itanium_demangle8CallExprEEclIJPKNS2_4NodeENS2_9NodeArrayENS6_4PrecEEEEvDpT_(ptr noundef nonnull align 8 dereferenceable(8) %3, ptr noundef %9, ptr %13, i64 %15, i32 noundef %11)
  ret void
}

; Function Attrs: mustprogress nounwind uwtable
define internal void @_ZN12_GLOBAL__N_111ProfileNodeclIN4llvm16itanium_demangle8CallExprEEEvPKT_(ptr noundef nonnull align 8 dereferenceable(8) %0, ptr noundef %1) #0 align 2 {
  %3 = alloca ptr, align 8
  %4 = alloca ptr, align 8
  %5 = alloca %"struct.(anonymous namespace)::ProfileSpecificNode.83", align 8
  store ptr %0, ptr %3, align 8
  store ptr %1, ptr %4, align 8
  %6 = load ptr, ptr %3, align 8
  %7 = load ptr, ptr %4, align 8
  %8 = getelementptr inbounds nuw %"struct.(anonymous namespace)::ProfileSpecificNode.83", ptr %5, i32 0, i32 0
  %9 = getelementptr inbounds nuw %"struct.(anonymous namespace)::ProfileNode", ptr %6, i32 0, i32 0
  %10 = load ptr, ptr %9, align 8
  store ptr %10, ptr %8, align 8
  %11 = getelementptr inbounds nuw %"struct.(anonymous namespace)::ProfileSpecificNode.83", ptr %5, i32 0, i32 0
  %12 = load ptr, ptr %11, align 8
  call void @_ZNK4llvm16itanium_demangle8CallExpr5matchIN12_GLOBAL__N_119ProfileSpecificNodeIS1_EEEEvT_(ptr noundef nonnull align 8 dereferenceable(40) %7, ptr %12)
  ret void
}