; Function Attrs: mustprogress nounwind uwtable
define internal fastcc void @_ZN12_GLOBAL__N_111ProfileNodeclIN4llvm16itanium_demangle8CallExprEEEvPKT_(ptr nonnull %.0.val, ptr noundef nonnull readonly captures(none) %0) unnamed_addr #0 align 2 {
  %2 = getelementptr inbounds nuw i8, ptr %0, i64 16
  %3 = load ptr, ptr %2, align 8
  %4 = getelementptr inbounds nuw i8, ptr %0, i64 24
  %.sroa.0.0.copyload.i = load ptr, ptr %4, align 8
  %.sroa.2.0..sroa_idx.i = getelementptr inbounds nuw i8, ptr %0, i64 32
  %.sroa.2.0.copyload.i = load i64, ptr %.sroa.2.0..sroa_idx.i, align 8
  %5 = getelementptr inbounds nuw i8, ptr %0, i64 9
  %6 = load i16, ptr %5, align 1
  tail call void @_ZN4llvm16FoldingSetNodeID10AddIntegerEy(ptr noundef nonnull align 8 dereferenceable(144) %.0.val, i64 noundef 63)
  %7 = ptrtoint ptr %3 to i64
  tail call void @_ZN4llvm16FoldingSetNodeID10AddIntegerEy(ptr noundef nonnull align 8 dereferenceable(144) %.0.val, i64 noundef %7)
  tail call void @_ZN4llvm16FoldingSetNodeID10AddIntegerEy(ptr noundef nonnull align 8 dereferenceable(144) %.0.val, i64 noundef %.sroa.2.0.copyload.i)
  %8 = getelementptr inbounds ptr, ptr %.sroa.0.0.copyload.i, i64 %.sroa.2.0.copyload.i
  %.not10.i.i.i.i = icmp eq i64 %.sroa.2.0.copyload.i, 0
  br i1 %.not10.i.i.i.i, label %_ZNK4llvm16itanium_demangle8CallExpr5matchIN12_GLOBAL__N_119ProfileSpecificNodeIS1_EEEEvT_.exit, label %.lr.ph.i.i.i.i

.lr.ph.i.i.i.i:                                   ; preds = %1, %.lr.ph.i.i.i.i
  %.011.i.i.i.i = phi ptr [ %11, %.lr.ph.i.i.i.i ], [ %.sroa.0.0.copyload.i, %1 ]
  %9 = load ptr, ptr %.011.i.i.i.i, align 8
  %10 = ptrtoint ptr %9 to i64
  tail call void @_ZN4llvm16FoldingSetNodeID10AddIntegerEy(ptr noundef nonnull align 8 dereferenceable(144) %.0.val, i64 noundef %10)
  %11 = getelementptr inbounds nuw i8, ptr %.011.i.i.i.i, i64 8
  %.not.i.i.i.i = icmp eq ptr %11, %8
  br i1 %.not.i.i.i.i, label %_ZNK4llvm16itanium_demangle8CallExpr5matchIN12_GLOBAL__N_119ProfileSpecificNodeIS1_EEEEvT_.exit, label %.lr.ph.i.i.i.i

_ZNK4llvm16itanium_demangle8CallExpr5matchIN12_GLOBAL__N_119ProfileSpecificNodeIS1_EEEEvT_.exit: ; preds = %.lr.ph.i.i.i.i, %1
  %12 = shl i16 %6, 10
  %13 = ashr exact i16 %12, 10
  %14 = sext i16 %13 to i64
  tail call void @_ZN4llvm16FoldingSetNodeID10AddIntegerEy(ptr noundef nonnull align 8 dereferenceable(144) %.0.val, i64 noundef %14)
  ret void
}